
main:     file format elf32-littleriscv


Disassembly of section .text:

80000000 <_start>:
80000000:	00100093          	li	ra,1
80000004:	00200113          	li	sp,2
80000008:	00300193          	li	gp,3
8000000c:	00400213          	li	tp,4
80000010:	00500293          	li	t0,5
80000014:	00600313          	li	t1,6
80000018:	00700393          	li	t2,7
8000001c:	00800413          	li	s0,8
80000020:	00900493          	li	s1,9
80000024:	00a00513          	li	a0,10
80000028:	00b00593          	li	a1,11
8000002c:	00c00613          	li	a2,12
80000030:	00d00693          	li	a3,13
80000034:	00e00713          	li	a4,14
80000038:	00f00793          	li	a5,15
8000003c:	01000813          	li	a6,16
80000040:	01100893          	li	a7,17
80000044:	01200913          	li	s2,18
80000048:	01300993          	li	s3,19
8000004c:	01400a13          	li	s4,20
80000050:	01500a93          	li	s5,21
80000054:	01600b13          	li	s6,22
80000058:	01700b93          	li	s7,23
8000005c:	01800c13          	li	s8,24
80000060:	01900c93          	li	s9,25
80000064:	01a00d13          	li	s10,26
80000068:	01b00d93          	li	s11,27
8000006c:	01c00e13          	li	t3,28
80000070:	01d00e93          	li	t4,29
80000074:	01e00f13          	li	t5,30
80000078:	01f00f93          	li	t6,31
8000007c:	02000013          	li	zero,32

80000080 <store>:
80000080:	40000297          	auipc	t0,0x40000
80000084:	f8028293          	addi	t0,t0,-128 # c0000000 <mem>
80000088:	00000313          	li	t1,0
8000008c:	08000393          	li	t2,128

80000090 <store_loop>:
80000090:	00628e33          	add	t3,t0,t1
80000094:	006e2023          	sw	t1,0(t3)
80000098:	00430313          	addi	t1,t1,4
8000009c:	fe734ae3          	blt	t1,t2,80000090 <store_loop>

800000a0 <loads>:
800000a0:	40000297          	auipc	t0,0x40000
800000a4:	f6028293          	addi	t0,t0,-160 # c0000000 <mem>
800000a8:	00000313          	li	t1,0
800000ac:	08000393          	li	t2,128

800000b0 <loads_loop>:
800000b0:	00628e33          	add	t3,t0,t1
800000b4:	000e2e83          	lw	t4,0(t3)
800000b8:	00430313          	addi	t1,t1,4
800000bc:	fe734ae3          	blt	t1,t2,800000b0 <loads_loop>

800000c0 <calc>:
800000c0:	7e400293          	li	t0,2020
800000c4:	3e828293          	addi	t0,t0,1000
800000c8:	00001337          	lui	t1,0x1
800000cc:	bcc30313          	addi	t1,t1,-1076 # bcc <_start-0x7ffff434>
800000d0:	16629263          	bne	t0,t1,80000234 <calc_error>
800000d4:	c1800293          	li	t0,-1000
800000d8:	81c2a293          	slti	t0,t0,-2020
800000dc:	00000313          	li	t1,0
800000e0:	14629a63          	bne	t0,t1,80000234 <calc_error>
800000e4:	3e800293          	li	t0,1000
800000e8:	7e42b293          	sltiu	t0,t0,2020
800000ec:	00100313          	li	t1,1
800000f0:	14629263          	bne	t0,t1,80000234 <calc_error>
800000f4:	7e400293          	li	t0,2020
800000f8:	3e82c293          	xori	t0,t0,1000
800000fc:	40c00313          	li	t1,1036
80000100:	12629a63          	bne	t0,t1,80000234 <calc_error>
80000104:	7e400293          	li	t0,2020
80000108:	3e82e293          	ori	t0,t0,1000
8000010c:	7ec00313          	li	t1,2028
80000110:	12629263          	bne	t0,t1,80000234 <calc_error>
80000114:	7e400293          	li	t0,2020
80000118:	3e82f293          	andi	t0,t0,1000
8000011c:	3e000313          	li	t1,992
80000120:	10629a63          	bne	t0,t1,80000234 <calc_error>
80000124:	7e400293          	li	t0,2020
80000128:	00429293          	slli	t0,t0,0x4
8000012c:	00008337          	lui	t1,0x8
80000130:	e4030313          	addi	t1,t1,-448 # 7e40 <_start-0x7fff81c0>
80000134:	10629063          	bne	t0,t1,80000234 <calc_error>
80000138:	81c00293          	li	t0,-2020
8000013c:	0042d293          	srli	t0,t0,0x4
80000140:	10000337          	lui	t1,0x10000
80000144:	f8130313          	addi	t1,t1,-127 # fffff81 <_start-0x7000007f>
80000148:	0e629663          	bne	t0,t1,80000234 <calc_error>
8000014c:	81c00293          	li	t0,-2020
80000150:	4042d293          	srai	t0,t0,0x4
80000154:	f8100313          	li	t1,-127
80000158:	0c629e63          	bne	t0,t1,80000234 <calc_error>
8000015c:	7e400293          	li	t0,2020
80000160:	3e800313          	li	t1,1000
80000164:	006283b3          	add	t2,t0,t1
80000168:	00001e37          	lui	t3,0x1
8000016c:	bcce0e13          	addi	t3,t3,-1076 # bcc <_start-0x7ffff434>
80000170:	0dc39263          	bne	t2,t3,80000234 <calc_error>
80000174:	7e400293          	li	t0,2020
80000178:	3e800313          	li	t1,1000
8000017c:	406283b3          	sub	t2,t0,t1
80000180:	3fc00e13          	li	t3,1020
80000184:	0bc39863          	bne	t2,t3,80000234 <calc_error>
80000188:	7e400293          	li	t0,2020
8000018c:	00400313          	li	t1,4
80000190:	006293b3          	sll	t2,t0,t1
80000194:	00008e37          	lui	t3,0x8
80000198:	e40e0e13          	addi	t3,t3,-448 # 7e40 <_start-0x7fff81c0>
8000019c:	09c39c63          	bne	t2,t3,80000234 <calc_error>
800001a0:	c1800293          	li	t0,-1000
800001a4:	81c00313          	li	t1,-2020
800001a8:	0062a3b3          	slt	t2,t0,t1
800001ac:	00000e13          	li	t3,0
800001b0:	09c39263          	bne	t2,t3,80000234 <calc_error>
800001b4:	3e800293          	li	t0,1000
800001b8:	7e400313          	li	t1,2020
800001bc:	0062b3b3          	sltu	t2,t0,t1
800001c0:	00100e13          	li	t3,1
800001c4:	07c39863          	bne	t2,t3,80000234 <calc_error>
800001c8:	7e400293          	li	t0,2020
800001cc:	3e800313          	li	t1,1000
800001d0:	0062c3b3          	xor	t2,t0,t1
800001d4:	40c00e13          	li	t3,1036
800001d8:	05c39e63          	bne	t2,t3,80000234 <calc_error>
800001dc:	81c00293          	li	t0,-2020
800001e0:	00400313          	li	t1,4
800001e4:	0062d3b3          	srl	t2,t0,t1
800001e8:	10000e37          	lui	t3,0x10000
800001ec:	f81e0e13          	addi	t3,t3,-127 # fffff81 <_start-0x7000007f>
800001f0:	05c39263          	bne	t2,t3,80000234 <calc_error>
800001f4:	81c00293          	li	t0,-2020
800001f8:	00400313          	li	t1,4
800001fc:	4062d3b3          	sra	t2,t0,t1
80000200:	f8100e13          	li	t3,-127
80000204:	03c39863          	bne	t2,t3,80000234 <calc_error>
80000208:	7e400293          	li	t0,2020
8000020c:	3e800313          	li	t1,1000
80000210:	0062e3b3          	or	t2,t0,t1
80000214:	7ec00e13          	li	t3,2028
80000218:	01c39e63          	bne	t2,t3,80000234 <calc_error>
8000021c:	7e400293          	li	t0,2020
80000220:	3e800313          	li	t1,1000
80000224:	0062f3b3          	and	t2,t0,t1
80000228:	3e000e13          	li	t3,992
8000022c:	01c39463          	bne	t2,t3,80000234 <calc_error>
80000230:	0080006f          	j	80000238 <branch_1>

80000234 <calc_error>:
80000234:	0000006f          	j	80000234 <calc_error>

80000238 <branch_1>:
80000238:	7e400293          	li	t0,2020
8000023c:	7e400313          	li	t1,2020
80000240:	00629463          	bne	t0,t1,80000248 <branch_2>
80000244:	00628a63          	beq	t0,t1,80000258 <branch_3>

80000248 <branch_2>:
80000248:	7e400293          	li	t0,2020
8000024c:	7e500313          	li	t1,2021
80000250:	00628463          	beq	t0,t1,80000258 <branch_3>
80000254:	00629a63          	bne	t0,t1,80000268 <branch_4>

80000258 <branch_3>:
80000258:	81b00293          	li	t0,-2021
8000025c:	81c00313          	li	t1,-2020
80000260:	0062d463          	bge	t0,t1,80000268 <branch_4>
80000264:	0062ca63          	blt	t0,t1,80000278 <branch_5>

80000268 <branch_4>:
80000268:	81c00293          	li	t0,-2020
8000026c:	81c00313          	li	t1,-2020
80000270:	0062c463          	blt	t0,t1,80000278 <branch_5>
80000274:	0062da63          	bge	t0,t1,80000288 <branch_6>

80000278 <branch_5>:
80000278:	7e400293          	li	t0,2020
8000027c:	7e500313          	li	t1,2021
80000280:	0062d463          	bge	t0,t1,80000288 <branch_6>
80000284:	fc62c2e3          	blt	t0,t1,80000248 <branch_2>

80000288 <branch_6>:
80000288:	7e400293          	li	t0,2020
8000028c:	7e400313          	li	t1,2020
80000290:	fa62c4e3          	blt	t0,t1,80000238 <branch_1>
80000294:	0062d263          	bge	t0,t1,80000298 <final>

80000298 <final>:
80000298:	0000006f          	j	80000298 <final>

Disassembly of section .data:

c0000000 <mem>:
c0000000:	0000                	unimp
c0000002:	0000                	unimp
c0000004:	0000                	unimp
c0000006:	0000                	unimp
c0000008:	0000                	unimp
c000000a:	0000                	unimp
c000000c:	0000                	unimp
c000000e:	0000                	unimp
c0000010:	0000                	unimp
c0000012:	0000                	unimp
c0000014:	0000                	unimp
c0000016:	0000                	unimp
c0000018:	0000                	unimp
c000001a:	0000                	unimp
c000001c:	0000                	unimp
c000001e:	0000                	unimp
c0000020:	0000                	unimp
c0000022:	0000                	unimp
c0000024:	0000                	unimp
c0000026:	0000                	unimp
c0000028:	0000                	unimp
c000002a:	0000                	unimp
c000002c:	0000                	unimp
c000002e:	0000                	unimp
c0000030:	0000                	unimp
c0000032:	0000                	unimp
c0000034:	0000                	unimp
c0000036:	0000                	unimp
c0000038:	0000                	unimp
c000003a:	0000                	unimp
c000003c:	0000                	unimp
c000003e:	0000                	unimp
c0000040:	0000                	unimp
c0000042:	0000                	unimp
c0000044:	0000                	unimp
c0000046:	0000                	unimp
c0000048:	0000                	unimp
c000004a:	0000                	unimp
c000004c:	0000                	unimp
c000004e:	0000                	unimp
c0000050:	0000                	unimp
c0000052:	0000                	unimp
c0000054:	0000                	unimp
c0000056:	0000                	unimp
c0000058:	0000                	unimp
c000005a:	0000                	unimp
c000005c:	0000                	unimp
c000005e:	0000                	unimp
c0000060:	0000                	unimp
c0000062:	0000                	unimp
c0000064:	0000                	unimp
c0000066:	0000                	unimp
c0000068:	0000                	unimp
c000006a:	0000                	unimp
c000006c:	0000                	unimp
c000006e:	0000                	unimp
c0000070:	0000                	unimp
c0000072:	0000                	unimp
c0000074:	0000                	unimp
c0000076:	0000                	unimp
c0000078:	0000                	unimp
c000007a:	0000                	unimp
c000007c:	0000                	unimp
c000007e:	0000                	unimp
